; Function Attrs: mustprogress uwtable
define void @_ZN3gmx10ImdSession23dd_make_local_IMD_atomsEPK12gmx_domdec_t(ptr noundef nonnull readonly align 8 captures(none) dereferenceable(8) %0, ptr noundef readonly captures(none) %1) local_unnamed_addr #0 align 2 {
  %3 = load ptr, ptr %0, align 8, !tbaa !127
  %4 = load i8, ptr %3, align 8, !tbaa !129, !range !138, !noundef !139
  %5 = trunc nuw i8 %4 to i1
  br i1 %5, label %6, label %18

6:                                                ; preds = %2
  %7 = getelementptr inbounds nuw i8, ptr %1, i64 904
  %8 = load ptr, ptr %7, align 8, !tbaa !140
  %9 = getelementptr inbounds nuw i8, ptr %3, i64 16
  %10 = load i32, ptr %9, align 8, !tbaa !142
  %11 = getelementptr inbounds nuw i8, ptr %3, i64 24
  %12 = load ptr, ptr %11, align 8, !tbaa !143
  %13 = getelementptr inbounds nuw i8, ptr %3, i64 20
  %14 = getelementptr inbounds nuw i8, ptr %3, i64 32
  %15 = getelementptr inbounds nuw i8, ptr %3, i64 40
  %16 = getelementptr inbounds nuw i8, ptr %3, i64 80
  %17 = load ptr, ptr %16, align 8, !tbaa !144
  tail call void @_Z27dd_make_local_group_indicesPK11gmx_ga2la_tiPiS2_PS2_S2_S2_(ptr noundef %8, i32 noundef %10, ptr noundef %12, ptr noundef nonnull %13, ptr noundef nonnull %14, ptr noundef nonnull %15, ptr noundef %17)
  br label %18

18:                                               ; preds = %2, %6
  ret void
}